target datalayout = "e-m:e-p270:32:32-p271:32:32-p272:64:64-i64:64-i128:128-f80:128-n8:16:32:64-S128"
target triple = "x86_64-pc-linux-gnu"

%struct.PS_UnicodesRec_ = type { %struct.FT_CMapRec_, i32, ptr }
%struct.FT_CMapRec_ = type { %struct.FT_CharMapRec_, ptr }
%struct.FT_CharMapRec_ = type { ptr, i32, i16, i16 }
%struct.PS_UniMap_ = type { i32, i32 }

@ft_extra_glyph_unicodes = internal constant [10 x i32] [i32 916, i32 937, i32 8725, i32 173, i32 713, i32 956, i32 8729, i32 160, i32 538, i32 539], align 16
@ft_extra_glyph_names = internal constant [85 x i8] c"Delta\00Omega\00fraction\00hyphen\00macron\00mu\00periodcentered\00space\00Tcommaaccent\00tcommaaccent\00", align 16
@ft_extra_glyph_name_offsets = internal constant [10 x i32] [i32 0, i32 6, i32 12, i32 21, i32 28, i32 35, i32 38, i32 53, i32 59, i32 72], align 16

; Function Attrs: nounwind uwtable
define internal void @ps_check_extra_glyph_unicode(i32 noundef %0, ptr noundef %1) #0 {
  %3 = alloca i32, align 4
  %4 = alloca ptr, align 8
  %5 = alloca i32, align 4
  %6 = alloca i32, align 4
  store i32 %0, ptr %3, align 4, !tbaa !11
  store ptr %1, ptr %4, align 8, !tbaa !38
  call void @llvm.lifetime.start.p0(i64 4, ptr %5) #5
  store i32 0, ptr %5, align 4, !tbaa !11
  br label %7

7:                                                ; preds = %23, %2
  %8 = load i32, ptr %5, align 4, !tbaa !11
  %9 = icmp ult i32 %8, 10
  br i1 %9, label %10, label %26

10:                                               ; preds = %7
  %11 = load i32, ptr %3, align 4, !tbaa !11
  %12 = load i32, ptr %5, align 4, !tbaa !11
  %13 = zext i32 %12 to i64
  %14 = getelementptr inbounds nuw [10 x i32], ptr @ft_extra_glyph_unicodes, i64 0, i64 %13
  %15 = load i32, ptr %14, align 4, !tbaa !11
  %16 = icmp eq i32 %11, %15
  br i1 %16, label %17, label %22

17:                                               ; preds = %10
  %18 = load ptr, ptr %4, align 8, !tbaa !38
  %19 = load i32, ptr %5, align 4, !tbaa !11
  %20 = zext i32 %19 to i64
  %21 = getelementptr inbounds nuw i32, ptr %18, i64 %20
  store i32 2, ptr %21, align 4, !tbaa !11
  store i32 1, ptr %6, align 4
  br label %27

22:                                               ; preds = %10
  br label %23

23:                                               ; preds = %22
  %24 = load i32, ptr %5, align 4, !tbaa !11
  %25 = add i32 %24, 1
  store i32 %25, ptr %5, align 4, !tbaa !11
  br label %7, !llvm.loop !45

26:                                               ; preds = %7
  store i32 0, ptr %6, align 4
  br label %27

27:                                               ; preds = %26, %17
  call void @llvm.lifetime.end.p0(i64 4, ptr %5) #5
  %28 = load i32, ptr %6, align 4
  switch i32 %28, label %30 [
    i32 0, label %29
    i32 1, label %29
  ]

29:                                               ; preds = %27, %27
  ret void

30:                                               ; preds = %27
  unreachable
}

; Function Attrs: nounwind uwtable
define internal void @ps_check_extra_glyph_name(ptr noundef %0, i32 noundef %1, ptr noundef %2, ptr noundef %3) #0 {
  %5 = alloca ptr, align 8
  %6 = alloca i32, align 4
  %7 = alloca ptr, align 8
  %8 = alloca ptr, align 8
  %9 = alloca i32, align 4
  %10 = alloca i32, align 4
  store ptr %0, ptr %5, align 8, !tbaa !8
  store i32 %1, ptr %6, align 4, !tbaa !11
  store ptr %2, ptr %7, align 8, !tbaa !38
  store ptr %3, ptr %8, align 8, !tbaa !38
  call void @llvm.lifetime.start.p0(i64 4, ptr %9) #5
  store i32 0, ptr %9, align 4, !tbaa !11
  br label %11

11:                                               ; preds = %43, %4
  %12 = load i32, ptr %9, align 4, !tbaa !11
  %13 = icmp ult i32 %12, 10
  br i1 %13, label %14, label %46

14:                                               ; preds = %11
  %15 = load i32, ptr %9, align 4, !tbaa !11
  %16 = zext i32 %15 to i64
  %17 = getelementptr inbounds nuw [10 x i32], ptr @ft_extra_glyph_name_offsets, i64 0, i64 %16
  %18 = load i32, ptr %17, align 4, !tbaa !11
  %19 = sext i32 %18 to i64
  %20 = getelementptr inbounds i8, ptr @ft_extra_glyph_names, i64 %19
  %21 = load ptr, ptr %5, align 8, !tbaa !8
  %22 = call i32 @strcmp(ptr noundef %20, ptr noundef %21) #6
  %23 = icmp eq i32 %22, 0
  br i1 %23, label %24, label %42

24:                                               ; preds = %14
  %25 = load ptr, ptr %8, align 8, !tbaa !38
  %26 = load i32, ptr %9, align 4, !tbaa !11
  %27 = zext i32 %26 to i64
  %28 = getelementptr inbounds nuw i32, ptr %25, i64 %27
  %29 = load i32, ptr %28, align 4, !tbaa !11
  %30 = icmp eq i32 %29, 0
  br i1 %30, label %31, label %41

31:                                               ; preds = %24
  %32 = load ptr, ptr %8, align 8, !tbaa !38
  %33 = load i32, ptr %9, align 4, !tbaa !11
  %34 = zext i32 %33 to i64
  %35 = getelementptr inbounds nuw i32, ptr %32, i64 %34
  store i32 1, ptr %35, align 4, !tbaa !11
  %36 = load i32, ptr %6, align 4, !tbaa !11
  %37 = load ptr, ptr %7, align 8, !tbaa !38
  %38 = load i32, ptr %9, align 4, !tbaa !11
  %39 = zext i32 %38 to i64
  %40 = getelementptr inbounds nuw i32, ptr %37, i64 %39
  store i32 %36, ptr %40, align 4, !tbaa !11
  br label %41

41:                                               ; preds = %31, %24
  store i32 1, ptr %10, align 4
  br label %47

42:                                               ; preds = %14
  br label %43

43:                                               ; preds = %42
  %44 = load i32, ptr %9, align 4, !tbaa !11
  %45 = add i32 %44, 1
  store i32 %45, ptr %9, align 4, !tbaa !11
  br label %11, !llvm.loop !44

46:                                               ; preds = %11
  store i32 0, ptr %10, align 4
  br label %47

47:                                               ; preds = %46, %41
  call void @llvm.lifetime.end.p0(i64 4, ptr %9) #5
  %48 = load i32, ptr %10, align 4
  switch i32 %48, label %50 [
    i32 0, label %49
    i32 1, label %49
  ]

49:                                               ; preds = %47, %47
  ret void

50:                                               ; preds = %47
  unreachable
}

; Function Attrs: nounwind uwtable
define internal i32 @ps_unicodes_init(ptr noundef %0, ptr noundef %1, i32 noundef %2, ptr noundef %3, ptr noundef %4, ptr noundef %5) #0 {
  %7 = alloca ptr, align 8
  %8 = alloca ptr, align 8
  %9 = alloca i32, align 4
  %10 = alloca ptr, align 8
  %11 = alloca ptr, align 8
  %12 = alloca ptr, align 8
  %13 = alloca i32, align 4
  %14 = alloca [10 x i32], align 16
  %15 = alloca [10 x i32], align 16
  %16 = alloca i32, align 4
  %17 = alloca i32, align 4
  %18 = alloca ptr, align 8
  %19 = alloca i32, align 4
  %20 = alloca ptr, align 8
  store ptr %0, ptr %7, align 8, !tbaa !17
  store ptr %1, ptr %8, align 8, !tbaa !19
  store i32 %2, ptr %9, align 4, !tbaa !11
  store ptr %3, ptr %10, align 8, !tbaa !21
  store ptr %4, ptr %11, align 8, !tbaa !21
  store ptr %5, ptr %12, align 8, !tbaa !21
  call void @llvm.lifetime.start.p0(i64 4, ptr %13) #5
  call void @llvm.lifetime.start.p0(i64 40, ptr %14) #5
  call void @llvm.memset.p0.i64(ptr align 16 %14, i8 0, i64 40, i1 false)
  call void @llvm.lifetime.start.p0(i64 40, ptr %15) #5
  %21 = load ptr, ptr %8, align 8, !tbaa !19
  %22 = getelementptr inbounds nuw %struct.PS_UnicodesRec_, ptr %21, i32 0, i32 1
  store i32 0, ptr %22, align 8, !tbaa !22
  %23 = load ptr, ptr %7, align 8, !tbaa !17
  %24 = load i32, ptr %9, align 4, !tbaa !11
  %25 = add i32 %24, 10
  %26 = zext i32 %25 to i64
  %27 = call ptr @ft_mem_qrealloc(ptr noundef %23, i64 noundef 8, i64 noundef 0, i64 noundef %26, ptr noundef null, ptr noundef %13)
  %28 = load ptr, ptr %8, align 8, !tbaa !19
  %29 = getelementptr inbounds nuw %struct.PS_UnicodesRec_, ptr %28, i32 0, i32 2
  store ptr %27, ptr %29, align 8, !tbaa !30
  %30 = load i32, ptr %13, align 4, !tbaa !11
  %31 = icmp ne i32 %30, 0
  br i1 %31, label %170, label %32

32:                                               ; preds = %6
  call void @llvm.lifetime.start.p0(i64 4, ptr %16) #5
  call void @llvm.lifetime.start.p0(i64 4, ptr %17) #5
  call void @llvm.lifetime.start.p0(i64 8, ptr %18) #5
  call void @llvm.lifetime.start.p0(i64 4, ptr %19) #5
  %33 = load ptr, ptr %8, align 8, !tbaa !19
  %34 = getelementptr inbounds nuw %struct.PS_UnicodesRec_, ptr %33, i32 0, i32 2
  %35 = load ptr, ptr %34, align 8, !tbaa !30
  store ptr %35, ptr %18, align 8, !tbaa !31
  store i32 0, ptr %16, align 4, !tbaa !11
  br label %36

36:                                               ; preds = %84, %32
  %37 = load i32, ptr %16, align 4, !tbaa !11
  %38 = load i32, ptr %9, align 4, !tbaa !11
  %39 = icmp ult i32 %37, %38
  br i1 %39, label %40, label %87

40:                                               ; preds = %36
  call void @llvm.lifetime.start.p0(i64 8, ptr %20) #5
  %41 = load ptr, ptr %10, align 8, !tbaa !21
  %42 = load ptr, ptr %12, align 8, !tbaa !21
  %43 = load i32, ptr %16, align 4, !tbaa !11
  %44 = call ptr %41(ptr noundef %42, i32 noundef %43)
  store ptr %44, ptr %20, align 8, !tbaa !8
  %45 = load ptr, ptr %20, align 8, !tbaa !8
  %46 = icmp ne ptr %45, null
  br i1 %46, label %47, label %83

47:                                               ; preds = %40
  %48 = load ptr, ptr %20, align 8, !tbaa !8
  %49 = load i8, ptr %48, align 1, !tbaa !10
  %50 = sext i8 %49 to i32
  %51 = icmp ne i32 %50, 0
  br i1 %51, label %52, label %83

52:                                               ; preds = %47
  %53 = load ptr, ptr %20, align 8, !tbaa !8
  %54 = load i32, ptr %16, align 4, !tbaa !11
  %55 = getelementptr inbounds [10 x i32], ptr %15, i64 0, i64 0
  %56 = getelementptr inbounds [10 x i32], ptr %14, i64 0, i64 0
  call void @ps_check_extra_glyph_name(ptr noundef %53, i32 noundef %54, ptr noundef %55, ptr noundef %56)
  %57 = load ptr, ptr %20, align 8, !tbaa !8
  %58 = call i32 @ps_unicode_value(ptr noundef %57)
  store i32 %58, ptr %19, align 4, !tbaa !11
  %59 = load i32, ptr %19, align 4, !tbaa !11
  %60 = zext i32 %59 to i64
  %61 = and i64 %60, -2147483649
  %62 = trunc i64 %61 to i32
  %63 = icmp ne i32 %62, 0
  br i1 %63, label %64, label %75

64:                                               ; preds = %52
  %65 = load i32, ptr %19, align 4, !tbaa !11
  %66 = getelementptr inbounds [10 x i32], ptr %14, i64 0, i64 0
  call void @ps_check_extra_glyph_unicode(i32 noundef %65, ptr noundef %66)
  %67 = load i32, ptr %19, align 4, !tbaa !11
  %68 = load ptr, ptr %18, align 8, !tbaa !31
  %69 = getelementptr inbounds nuw %struct.PS_UniMap_, ptr %68, i32 0, i32 0
  store i32 %67, ptr %69, align 4, !tbaa !32
  %70 = load i32, ptr %16, align 4, !tbaa !11
  %71 = load ptr, ptr %18, align 8, !tbaa !31
  %72 = getelementptr inbounds nuw %struct.PS_UniMap_, ptr %71, i32 0, i32 1
  store i32 %70, ptr %72, align 4, !tbaa !34
  %73 = load ptr, ptr %18, align 8, !tbaa !31
  %74 = getelementptr inbounds nuw %struct.PS_UniMap_, ptr %73, i32 1
  store ptr %74, ptr %18, align 8, !tbaa !31
  br label %75

75:                                               ; preds = %64, %52
  %76 = load ptr, ptr %11, align 8, !tbaa !21
  %77 = icmp ne ptr %76, null
  br i1 %77, label %78, label %82

78:                                               ; preds = %75
  %79 = load ptr, ptr %11, align 8, !tbaa !21
  %80 = load ptr, ptr %12, align 8, !tbaa !21
  %81 = load ptr, ptr %20, align 8, !tbaa !8
  call void %79(ptr noundef %80, ptr noundef %81)
  br label %82

82:                                               ; preds = %78, %75
  br label %83

83:                                               ; preds = %82, %47, %40
  call void @llvm.lifetime.end.p0(i64 8, ptr %20) #5
  br label %84

84:                                               ; preds = %83
  %85 = load i32, ptr %16, align 4, !tbaa !11
  %86 = add i32 %85, 1
  store i32 %86, ptr %16, align 4, !tbaa !11
  br label %36, !llvm.loop !35

87:                                               ; preds = %36
  store i32 0, ptr %16, align 4, !tbaa !11
  br label %88

88:                                               ; preds = %113, %87
  %89 = load i32, ptr %16, align 4, !tbaa !11
  %90 = icmp ult i32 %89, 10
  br i1 %90, label %91, label %116

91:                                               ; preds = %88
  %92 = load i32, ptr %16, align 4, !tbaa !11
  %93 = zext i32 %92 to i64
  %94 = getelementptr inbounds nuw [10 x i32], ptr %14, i64 0, i64 %93
  %95 = load i32, ptr %94, align 4, !tbaa !11
  %96 = icmp eq i32 %95, 1
  br i1 %96, label %97, label %112

97:                                               ; preds = %91
  %98 = load i32, ptr %16, align 4, !tbaa !11
  %99 = zext i32 %98 to i64
  %100 = getelementptr inbounds nuw [10 x i32], ptr @ft_extra_glyph_unicodes, i64 0, i64 %99
  %101 = load i32, ptr %100, align 4, !tbaa !11
  %102 = load ptr, ptr %18, align 8, !tbaa !31
  %103 = getelementptr inbounds nuw %struct.PS_UniMap_, ptr %102, i32 0, i32 0
  store i32 %101, ptr %103, align 4, !tbaa !32
  %104 = load i32, ptr %16, align 4, !tbaa !11
  %105 = zext i32 %104 to i64
  %106 = getelementptr inbounds nuw [10 x i32], ptr %15, i64 0, i64 %105
  %107 = load i32, ptr %106, align 4, !tbaa !11
  %108 = load ptr, ptr %18, align 8, !tbaa !31
  %109 = getelementptr inbounds nuw %struct.PS_UniMap_, ptr %108, i32 0, i32 1
  store i32 %107, ptr %109, align 4, !tbaa !34
  %110 = load ptr, ptr %18, align 8, !tbaa !31
  %111 = getelementptr inbounds nuw %struct.PS_UniMap_, ptr %110, i32 1
  store ptr %111, ptr %18, align 8, !tbaa !31
  br label %112

112:                                              ; preds = %97, %91
  br label %113

113:                                              ; preds = %112
  %114 = load i32, ptr %16, align 4, !tbaa !11
  %115 = add i32 %114, 1
  store i32 %115, ptr %16, align 4, !tbaa !11
  br label %88, !llvm.loop !36

116:                                              ; preds = %88
  %117 = load ptr, ptr %18, align 8, !tbaa !31
  %118 = load ptr, ptr %8, align 8, !tbaa !19
  %119 = getelementptr inbounds nuw %struct.PS_UnicodesRec_, ptr %118, i32 0, i32 2
  %120 = load ptr, ptr %119, align 8, !tbaa !30
  %121 = ptrtoint ptr %117 to i64
  %122 = ptrtoint ptr %120 to i64
  %123 = sub i64 %121, %122
  %124 = sdiv exact i64 %123, 8
  %125 = trunc i64 %124 to i32
  store i32 %125, ptr %17, align 4, !tbaa !11
  %126 = load i32, ptr %17, align 4, !tbaa !11
  %127 = icmp eq i32 %126, 0
  br i1 %127, label %128, label %142

128:                                              ; preds = %116
  br label %129

129:                                              ; preds = %128
  %130 = load ptr, ptr %7, align 8, !tbaa !17
  %131 = load ptr, ptr %8, align 8, !tbaa !19
  %132 = getelementptr inbounds nuw %struct.PS_UnicodesRec_, ptr %131, i32 0, i32 2
  %133 = load ptr, ptr %132, align 8, !tbaa !30
  call void @ft_mem_free(ptr noundef %130, ptr noundef %133)
  %134 = load ptr, ptr %8, align 8, !tbaa !19
  %135 = getelementptr inbounds nuw %struct.PS_UnicodesRec_, ptr %134, i32 0, i32 2
  store ptr null, ptr %135, align 8, !tbaa !30
  br label %136

136:                                              ; preds = %129
  br label %137

137:                                              ; preds = %136
  %138 = load i32, ptr %13, align 4, !tbaa !11
  %139 = icmp ne i32 %138, 0
  br i1 %139, label %141, label %140

140:                                              ; preds = %137
  store i32 163, ptr %13, align 4, !tbaa !11
  br label %141

141:                                              ; preds = %140, %137
  br label %166

142:                                              ; preds = %116
  %143 = load i32, ptr %17, align 4, !tbaa !11
  %144 = load i32, ptr %9, align 4, !tbaa !11
  %145 = udiv i32 %144, 2
  %146 = icmp ult i32 %143, %145
  br i1 %146, label %147, label %160

147:                                              ; preds = %142
  %148 = load ptr, ptr %7, align 8, !tbaa !17
  %149 = load i32, ptr %9, align 4, !tbaa !11
  %150 = add i32 %149, 10
  %151 = zext i32 %150 to i64
  %152 = load i32, ptr %17, align 4, !tbaa !11
  %153 = zext i32 %152 to i64
  %154 = load ptr, ptr %8, align 8, !tbaa !19
  %155 = getelementptr inbounds nuw %struct.PS_UnicodesRec_, ptr %154, i32 0, i32 2
  %156 = load ptr, ptr %155, align 8, !tbaa !30
  %157 = call ptr @ft_mem_qrealloc(ptr noundef %148, i64 noundef 8, i64 noundef %151, i64 noundef %153, ptr noundef %156, ptr noundef %13)
  %158 = load ptr, ptr %8, align 8, !tbaa !19
  %159 = getelementptr inbounds nuw %struct.PS_UnicodesRec_, ptr %158, i32 0, i32 2
  store ptr %157, ptr %159, align 8, !tbaa !30
  store i32 0, ptr %13, align 4, !tbaa !11
  br label %160

160:                                              ; preds = %147, %142
  %161 = load ptr, ptr %8, align 8, !tbaa !19
  %162 = getelementptr inbounds nuw %struct.PS_UnicodesRec_, ptr %161, i32 0, i32 2
  %163 = load ptr, ptr %162, align 8, !tbaa !30
  %164 = load i32, ptr %17, align 4, !tbaa !11
  %165 = zext i32 %164 to i64
  call void @qsort(ptr noundef %163, i64 noundef %165, i64 noundef 8, ptr noundef @compare_uni_maps)
  br label %166

166:                                              ; preds = %160, %141
  %167 = load i32, ptr %17, align 4, !tbaa !11
  %168 = load ptr, ptr %8, align 8, !tbaa !19
  %169 = getelementptr inbounds nuw %struct.PS_UnicodesRec_, ptr %168, i32 0, i32 1
  store i32 %167, ptr %169, align 8, !tbaa !22
  call void @llvm.lifetime.end.p0(i64 4, ptr %19) #5
  call void @llvm.lifetime.end.p0(i64 8, ptr %18) #5
  call void @llvm.lifetime.end.p0(i64 4, ptr %17) #5
  call void @llvm.lifetime.end.p0(i64 4, ptr %16) #5
  br label %170

170:                                              ; preds = %166, %6
  %171 = load i32, ptr %13, align 4, !tbaa !11
  call void @llvm.lifetime.end.p0(i64 40, ptr %15) #5
  call void @llvm.lifetime.end.p0(i64 40, ptr %14) #5
  call void @llvm.lifetime.end.p0(i64 4, ptr %13) #5
  ret i32 %171
}