; Function Attrs: nounwind uwtable
define internal i32 @ps_unicodes_init(ptr noundef %0, ptr noundef captures(none) initializes((24, 28), (32, 40)) %1, i32 noundef %2, ptr noundef readonly captures(none) %3, ptr noundef readonly %4, ptr noundef %5) #0 {
  %7 = alloca i32, align 4
  %8 = alloca [10 x i32], align 16
  %9 = alloca [10 x i32], align 16
  call void @llvm.lifetime.start.p0(i64 4, ptr nonnull %7) #11
  call void @llvm.lifetime.start.p0(i64 40, ptr nonnull %8) #11
  call void @llvm.memset.p0.i64(ptr noundef nonnull align 16 dereferenceable(40) %8, i8 0, i64 40, i1 false)
  call void @llvm.lifetime.start.p0(i64 40, ptr nonnull %9) #11
  %10 = getelementptr inbounds nuw i8, ptr %1, i64 24
  store i32 0, ptr %10, align 8, !tbaa !11
  %11 = add i32 %2, 10
  %12 = zext i32 %11 to i64
  %13 = call ptr @ft_mem_qrealloc(ptr noundef %0, i64 noundef 8, i64 noundef 0, i64 noundef %12, ptr noundef null, ptr noundef nonnull %7) #11
  %14 = getelementptr inbounds nuw i8, ptr %1, i64 32
  store ptr %13, ptr %14, align 8, !tbaa !21
  %15 = load i32, ptr %7, align 4, !tbaa !22
  %.not = icmp eq i32 %15, 0
  br i1 %.not, label %.preheader67, label %76

.preheader67:                                     ; preds = %6
  %.not75 = icmp eq i32 %2, 0
  br i1 %.not75, label %.preheader.preheader, label %.lr.ph

.lr.ph:                                           ; preds = %.preheader67
  %.not61 = icmp eq ptr %4, null
  br label %16

16:                                               ; preds = %.lr.ph, %45
  %.071 = phi i32 [ 0, %.lr.ph ], [ %46, %45 ]
  %.05170 = phi ptr [ %13, %.lr.ph ], [ %.152, %45 ]
  %17 = call ptr %3(ptr noundef %5, i32 noundef %.071) #11
  %.not58 = icmp eq ptr %17, null
  br i1 %.not58, label %45, label %18

18:                                               ; preds = %16
  %19 = load i8, ptr %17, align 1, !tbaa !3
  %.not59 = icmp eq i8 %19, 0
  br i1 %.not59, label %45, label %.preheader66

20:                                               ; preds = %.preheader66
  %indvars.iv.next.i = add nuw nsw i64 %indvars.iv.i, 1
  %exitcond.not.i = icmp eq i64 %indvars.iv.next.i, 10
  br i1 %exitcond.not.i, label %ps_check_extra_glyph_name.exit, label %.preheader66, !llvm.loop !23

.preheader66:                                     ; preds = %18, %20
  %indvars.iv.i = phi i64 [ %indvars.iv.next.i, %20 ], [ 0, %18 ]
  %21 = getelementptr inbounds nuw [10 x i32], ptr @ft_extra_glyph_name_offsets, i64 0, i64 %indvars.iv.i
  %22 = load i32, ptr %21, align 4, !tbaa !22
  %23 = sext i32 %22 to i64
  %24 = getelementptr inbounds i8, ptr @ft_extra_glyph_names, i64 %23
  %25 = call i32 @strcmp(ptr noundef nonnull dereferenceable(1) %24, ptr noundef nonnull readonly dereferenceable(1) %17) #12
  %26 = icmp eq i32 %25, 0
  br i1 %26, label %27, label %20

27:                                               ; preds = %.preheader66
  %28 = getelementptr inbounds nuw i32, ptr %8, i64 %indvars.iv.i
  %29 = load i32, ptr %28, align 4, !tbaa !22
  %30 = icmp eq i32 %29, 0
  br i1 %30, label %31, label %ps_check_extra_glyph_name.exit

31:                                               ; preds = %27
  store i32 1, ptr %28, align 4, !tbaa !22
  %32 = getelementptr inbounds nuw i32, ptr %9, i64 %indvars.iv.i
  store i32 %.071, ptr %32, align 4, !tbaa !22
  br label %ps_check_extra_glyph_name.exit

ps_check_extra_glyph_name.exit:                   ; preds = %20, %27, %31
  %33 = call i32 @ps_unicode_value(ptr noundef nonnull %17)
  %34 = and i32 %33, 2147483647
  %.not60 = icmp eq i32 %34, 0
  br i1 %.not60, label %43, label %.preheader65

35:                                               ; preds = %.preheader65
  %indvars.iv.next.i63 = add nuw nsw i64 %indvars.iv.i62, 1
  %exitcond.not.i64 = icmp eq i64 %indvars.iv.next.i63, 10
  br i1 %exitcond.not.i64, label %ps_check_extra_glyph_unicode.exit, label %.preheader65, !llvm.loop !24

.preheader65:                                     ; preds = %ps_check_extra_glyph_name.exit, %35
  %indvars.iv.i62 = phi i64 [ %indvars.iv.next.i63, %35 ], [ 0, %ps_check_extra_glyph_name.exit ]
  %36 = getelementptr inbounds nuw [10 x i32], ptr @ft_extra_glyph_unicodes, i64 0, i64 %indvars.iv.i62
  %37 = load i32, ptr %36, align 4, !tbaa !22
  %38 = icmp eq i32 %33, %37
  br i1 %38, label %39, label %35

39:                                               ; preds = %.preheader65
  %40 = getelementptr inbounds nuw i32, ptr %8, i64 %indvars.iv.i62
  store i32 2, ptr %40, align 4, !tbaa !22
  br label %ps_check_extra_glyph_unicode.exit

ps_check_extra_glyph_unicode.exit:                ; preds = %35, %39
  store i32 %33, ptr %.05170, align 4, !tbaa !25
  %41 = getelementptr inbounds nuw i8, ptr %.05170, i64 4
  store i32 %.071, ptr %41, align 4, !tbaa !27
  %42 = getelementptr inbounds nuw i8, ptr %.05170, i64 8
  br label %43

43:                                               ; preds = %ps_check_extra_glyph_unicode.exit, %ps_check_extra_glyph_name.exit
  %.2 = phi ptr [ %42, %ps_check_extra_glyph_unicode.exit ], [ %.05170, %ps_check_extra_glyph_name.exit ]
  br i1 %.not61, label %45, label %44

44:                                               ; preds = %43
  call void %4(ptr noundef %5, ptr noundef nonnull %17) #11
  br label %45

45:                                               ; preds = %43, %44, %18, %16
  %.152 = phi ptr [ %.2, %44 ], [ %.2, %43 ], [ %.05170, %18 ], [ %.05170, %16 ]
  %46 = add nuw i32 %.071, 1
  %exitcond.not = icmp eq i32 %46, %2
  br i1 %exitcond.not, label %.preheader.preheader, label %16, !llvm.loop !28

.preheader.preheader:                             ; preds = %45, %.preheader67
  %.373.ph = phi ptr [ %13, %.preheader67 ], [ %.152, %45 ]
  br label %.preheader

.preheader:                                       ; preds = %.preheader.preheader, %57
  %indvars.iv = phi i64 [ %indvars.iv.next, %57 ], [ 0, %.preheader.preheader ]
  %.373 = phi ptr [ %.4, %57 ], [ %.373.ph, %.preheader.preheader ]
  %47 = getelementptr inbounds nuw [10 x i32], ptr %8, i64 0, i64 %indvars.iv
  %48 = load i32, ptr %47, align 4, !tbaa !22
  %49 = icmp eq i32 %48, 1
  br i1 %49, label %50, label %57

50:                                               ; preds = %.preheader
  %51 = getelementptr inbounds nuw [10 x i32], ptr @ft_extra_glyph_unicodes, i64 0, i64 %indvars.iv
  %52 = load i32, ptr %51, align 4, !tbaa !22
  store i32 %52, ptr %.373, align 4, !tbaa !25
  %53 = getelementptr inbounds nuw [10 x i32], ptr %9, i64 0, i64 %indvars.iv
  %54 = load i32, ptr %53, align 4, !tbaa !22
  %55 = getelementptr inbounds nuw i8, ptr %.373, i64 4
  store i32 %54, ptr %55, align 4, !tbaa !27
  %56 = getelementptr inbounds nuw i8, ptr %.373, i64 8
  br label %57

57:                                               ; preds = %.preheader, %50
  %.4 = phi ptr [ %56, %50 ], [ %.373, %.preheader ]
  %indvars.iv.next = add nuw nsw i64 %indvars.iv, 1
  %exitcond79.not = icmp eq i64 %indvars.iv.next, 10
  br i1 %exitcond79.not, label %58, label %.preheader, !llvm.loop !29

58:                                               ; preds = %57
  %59 = load ptr, ptr %14, align 8, !tbaa !21
  %60 = ptrtoint ptr %.4 to i64
  %61 = ptrtoint ptr %59 to i64
  %62 = sub i64 %60, %61
  %63 = lshr exact i64 %62, 3
  %64 = trunc i64 %63 to i32
  %65 = icmp eq i32 %64, 0
  br i1 %65, label %66, label %68

66:                                               ; preds = %58
  call void @ft_mem_free(ptr noundef %0, ptr noundef %59) #11
  store ptr null, ptr %14, align 8, !tbaa !21
  %67 = load i32, ptr %7, align 4, !tbaa !22
  %.not57 = icmp eq i32 %67, 0
  %spec.select = select i1 %.not57, i32 163, i32 %67
  br label %75

68:                                               ; preds = %58
  %69 = lshr i32 %2, 1
  %70 = icmp ugt i32 %69, %64
  %71 = and i64 %63, 4294967295
  br i1 %70, label %72, label %._crit_edge

72:                                               ; preds = %68
  %73 = call ptr @ft_mem_qrealloc(ptr noundef %0, i64 noundef 8, i64 noundef %12, i64 noundef %71, ptr noundef %59, ptr noundef nonnull %7) #11
  store ptr %73, ptr %14, align 8, !tbaa !21
  store i32 0, ptr %7, align 4, !tbaa !22
  br label %._crit_edge

._crit_edge:                                      ; preds = %68, %72
  %74 = phi ptr [ %73, %72 ], [ %59, %68 ]
  call void @qsort(ptr noundef %74, i64 noundef %71, i64 noundef 8, ptr noundef nonnull @compare_uni_maps) #11
  %.pre.pre = load i32, ptr %7, align 4, !tbaa !22
  br label %75

75:                                               ; preds = %66, %._crit_edge
  %.pre = phi i32 [ %.pre.pre, %._crit_edge ], [ %spec.select, %66 ]
  store i32 %64, ptr %10, align 8, !tbaa !11
  br label %76

76:                                               ; preds = %75, %6
  %77 = phi i32 [ %.pre, %75 ], [ %15, %6 ]
  call void @llvm.lifetime.end.p0(i64 40, ptr nonnull %9) #11
  call void @llvm.lifetime.end.p0(i64 40, ptr nonnull %8) #11
  call void @llvm.lifetime.end.p0(i64 4, ptr nonnull %7) #11
  ret i32 %77
}